; Function Attrs: mustprogress uwtable
define hidden void @_ZN13expr_inverter10set_is_varERSt8functionIFbP4exprEE(ptr nocapture noundef nonnull readonly align 8 dereferenceable(72) %this, ptr noundef nonnull align 8 dereferenceable(32) %is_var) unnamed_addr #6 align 2 {
entry:
  %m_inverters = getelementptr inbounds i8, ptr %this, i64 64
  %0 = load ptr, ptr %m_inverters, align 8
  %cmp.i.i = icmp eq ptr %0, null
  br i1 %cmp.i.i, label %for.end, label %_ZN6vectorIP14iexpr_inverterLb0EjE3endEv.exit

_ZN6vectorIP14iexpr_inverterLb0EjE3endEv.exit:    ; preds = %entry
  %arrayidx.i.i = getelementptr inbounds i8, ptr %0, i64 -4
  %1 = load i32, ptr %arrayidx.i.i, align 4
  %2 = zext i32 %1 to i64
  %add.ptr.i = getelementptr inbounds ptr, ptr %0, i64 %2
  %cmp.not5 = icmp eq i32 %1, 0
  br i1 %cmp.not5, label %for.end, label %for.body

for.body:                                         ; preds = %_ZN6vectorIP14iexpr_inverterLb0EjE3endEv.exit, %for.inc
  %__begin1.06 = phi ptr [ %incdec.ptr, %for.inc ], [ %0, %_ZN6vectorIP14iexpr_inverterLb0EjE3endEv.exit ]
  %3 = load ptr, ptr %__begin1.06, align 8
  %tobool.not = icmp eq ptr %3, null
  br i1 %tobool.not, label %for.inc, label %if.then

if.then:                                          ; preds = %for.body
  %vtable = load ptr, ptr %3, align 8
  %vfn = getelementptr inbounds i8, ptr %vtable, i64 16
  %4 = load ptr, ptr %vfn, align 8
  tail call void %4(ptr noundef nonnull align 8 dereferenceable(57) %3, ptr noundef nonnull align 8 dereferenceable(32) %is_var)
  br label %for.inc

for.inc:                                          ; preds = %for.body, %if.then
  %incdec.ptr = getelementptr inbounds i8, ptr %__begin1.06, i64 8
  %cmp.not = icmp eq ptr %incdec.ptr, %add.ptr.i
  br i1 %cmp.not, label %for.end, label %for.body

for.end:                                          ; preds = %for.inc, %entry, %_ZN6vectorIP14iexpr_inverterLb0EjE3endEv.exit
  ret void
}